; Function Attrs: mustprogress nofree norecurse nosync nounwind null_pointer_is_valid sspstrong willreturn memory(argmem: readwrite) uwtable
define internal noundef i32 @exp_pdu_data_dst_port_populate_data(ptr noundef readonly captures(none) %0, ptr readnone captures(none) %1, ptr noundef writeonly captures(none) initializes((0, 8)) %2, i32 %3) #6 {
  %5 = getelementptr inbounds nuw i8, ptr %0, i64 288
  %6 = load i32, ptr %5, align 8
  store i8 0, ptr %2, align 1
  %7 = getelementptr i8, ptr %2, i64 1
  store i8 26, ptr %7, align 1
  %8 = getelementptr i8, ptr %2, i64 2
  store i8 0, ptr %8, align 1
  %9 = getelementptr i8, ptr %2, i64 3
  store i8 4, ptr %9, align 1
  %10 = getelementptr i8, ptr %2, i64 4
  %11 = lshr i32 %6, 24
  %12 = trunc nuw i32 %11 to i8
  store i8 %12, ptr %10, align 1
  %13 = lshr i32 %6, 16
  %14 = trunc i32 %13 to i8
  %15 = getelementptr i8, ptr %2, i64 5
  store i8 %14, ptr %15, align 1
  %16 = lshr i32 %6, 8
  %17 = trunc i32 %16 to i8
  %18 = getelementptr i8, ptr %2, i64 6
  store i8 %17, ptr %18, align 1
  %19 = trunc i32 %6 to i8
  %20 = getelementptr i8, ptr %2, i64 7
  store i8 %19, ptr %20, align 1
  ret i32 8
}